target datalayout = "e-m:e-p270:32:32-p271:32:32-p272:64:64-i64:64-i128:128-f80:128-n8:16:32:64-S128"
target triple = "x86_64-pc-linux-gnu"

@.str.11 = private unnamed_addr constant [29 x i8] c"../openssl/test/pkcs7_test.c\00", align 1
@.str.15 = private unnamed_addr constant [36 x i8] c"cert = d2i_X509_bio(x509_bio, NULL)\00", align 1
@.str.16 = private unnamed_addr constant [17 x i8] c"ERR_peek_error()\00", align 1
@.str.17 = private unnamed_addr constant [2 x i8] c"0\00", align 1
@.str.18 = private unnamed_addr constant [25 x i8] c"store = X509_STORE_new()\00", align 1
@.str.19 = private unnamed_addr constant [33 x i8] c"X509_STORE_add_cert(store, cert)\00", align 1
@.str.22 = private unnamed_addr constant [47 x i8] c"bio = BIO_new_mem_buf(sig_der, sizeof sig_der)\00", align 1
@.str.23 = private unnamed_addr constant [58 x i8] c"x509_bio = BIO_new_mem_buf(smroot_der, sizeof smroot_der)\00", align 1
@.str.24 = private unnamed_addr constant [37 x i8] c"param = X509_STORE_get0_param(store)\00", align 1
@.str.25 = private unnamed_addr constant [61 x i8] c"X509_VERIFY_PARAM_set_purpose(param, X509_PURPOSE_CODE_SIGN)\00", align 1
@.str.26 = private unnamed_addr constant [36 x i8] c"X509_STORE_set1_param(store, param)\00", align 1
@.str.27 = private unnamed_addr constant [30 x i8] c"p7 = d2i_PKCS7_bio(bio, NULL)\00", align 1
@.str.28 = private unnamed_addr constant [45 x i8] c"PKCS7_verify(p7, NULL, store, NULL, NULL, 0)\00", align 1

; Function Attrs: nounwind uwtable
define internal i32 @pkcs7_inner_content_verify_test() #0 {
  %1 = alloca i32, align 4
  %2 = alloca ptr, align 8
  %3 = alloca ptr, align 8
  %4 = alloca ptr, align 8
  %5 = alloca ptr, align 8
  %6 = alloca ptr, align 8
  %7 = alloca ptr, align 8
  %8 = alloca [1575 x i8], align 16
  call void @llvm.lifetime.start.p0(i64 4, ptr %1) #5
  store i32 0, ptr %1, align 4, !tbaa !4
  call void @llvm.lifetime.start.p0(i64 8, ptr %2) #5
  store ptr null, ptr %2, align 8, !tbaa !8
  call void @llvm.lifetime.start.p0(i64 8, ptr %3) #5
  store ptr null, ptr %3, align 8, !tbaa !8
  call void @llvm.lifetime.start.p0(i64 8, ptr %4) #5
  store ptr null, ptr %4, align 8, !tbaa !11
  call void @llvm.lifetime.start.p0(i64 8, ptr %5) #5
  store ptr null, ptr %5, align 8, !tbaa !13
  call void @llvm.lifetime.start.p0(i64 8, ptr %6) #5
  store ptr null, ptr %6, align 8, !tbaa !15
  call void @llvm.lifetime.start.p0(i64 8, ptr %7) #5
  call void @llvm.lifetime.start.p0(i64 1575, ptr %8) #5
  call void @llvm.memcpy.p0.p0.i64(ptr align 16 %8, ptr align 16 @__const.pkcs7_inner_content_verify_test.sig_der, i64 1575, i1 false)
  %9 = getelementptr inbounds [1575 x i8], ptr %8, i64 0, i64 0
  %10 = call ptr @BIO_new_mem_buf(ptr noundef %9, i32 noundef 1575)
  store ptr %10, ptr %3, align 8, !tbaa !8
  %11 = call i32 @test_ptr(ptr noundef @.str.11, i32 noundef 364, ptr noundef @.str.22, ptr noundef %10)
  %12 = icmp ne i32 %11, 0
  br i1 %12, label %14, label %13

13:                                               ; preds = %0
  br label %86

14:                                               ; preds = %0
  %15 = call ptr @BIO_new_mem_buf(ptr noundef @smroot_der, i32 noundef 895)
  store ptr %15, ptr %2, align 8, !tbaa !8
  %16 = call i32 @test_ptr(ptr noundef @.str.11, i32 noundef 367, ptr noundef @.str.23, ptr noundef %15)
  %17 = icmp ne i32 %16, 0
  br i1 %17, label %18, label %83

18:                                               ; preds = %14
  %19 = load ptr, ptr %2, align 8, !tbaa !8
  %20 = call ptr @d2i_X509_bio(ptr noundef %19, ptr noundef null)
  store ptr %20, ptr %4, align 8, !tbaa !11
  %21 = call i32 @test_ptr(ptr noundef @.str.11, i32 noundef 368, ptr noundef @.str.15, ptr noundef %20)
  %22 = icmp ne i32 %21, 0
  br i1 %22, label %23, label %83

23:                                               ; preds = %18
  %24 = call i64 @ERR_peek_error()
  %25 = trunc i64 %24 to i32
  %26 = call i32 @test_int_eq(ptr noundef @.str.11, i32 noundef 369, ptr noundef @.str.16, ptr noundef @.str.17, i32 noundef %25, i32 noundef 0)
  %27 = icmp ne i32 %26, 0
  br i1 %27, label %28, label %83

28:                                               ; preds = %23
  %29 = call ptr @X509_STORE_new()
  store ptr %29, ptr %5, align 8, !tbaa !13
  %30 = call i32 @test_ptr(ptr noundef @.str.11, i32 noundef 370, ptr noundef @.str.18, ptr noundef %29)
  %31 = icmp ne i32 %30, 0
  br i1 %31, label %32, label %83

32:                                               ; preds = %28
  %33 = load ptr, ptr %5, align 8, !tbaa !13
  %34 = load ptr, ptr %4, align 8, !tbaa !11
  %35 = call i32 @X509_STORE_add_cert(ptr noundef %33, ptr noundef %34)
  %36 = icmp ne i32 %35, 0
  %37 = zext i1 %36 to i32
  %38 = call i32 @test_true(ptr noundef @.str.11, i32 noundef 371, ptr noundef @.str.19, i32 noundef %37)
  %39 = icmp ne i32 %38, 0
  br i1 %39, label %40, label %83

40:                                               ; preds = %32
  %41 = load ptr, ptr %5, align 8, !tbaa !13
  %42 = call ptr @X509_STORE_get0_param(ptr noundef %41)
  store ptr %42, ptr %7, align 8, !tbaa !23
  %43 = call i32 @test_ptr(ptr noundef @.str.11, i32 noundef 372, ptr noundef @.str.24, ptr noundef %42)
  %44 = icmp ne i32 %43, 0
  br i1 %44, label %45, label %83

45:                                               ; preds = %40
  %46 = load ptr, ptr %7, align 8, !tbaa !23
  %47 = call i32 @X509_VERIFY_PARAM_set_purpose(ptr noundef %46, i32 noundef 10)
  %48 = icmp ne i32 %47, 0
  %49 = zext i1 %48 to i32
  %50 = call i32 @test_true(ptr noundef @.str.11, i32 noundef 374, ptr noundef @.str.25, i32 noundef %49)
  %51 = icmp ne i32 %50, 0
  br i1 %51, label %52, label %83

52:                                               ; preds = %45
  %53 = load ptr, ptr %5, align 8, !tbaa !13
  %54 = load ptr, ptr %7, align 8, !tbaa !23
  %55 = call i32 @X509_STORE_set1_param(ptr noundef %53, ptr noundef %54)
  %56 = icmp ne i32 %55, 0
  %57 = zext i1 %56 to i32
  %58 = call i32 @test_true(ptr noundef @.str.11, i32 noundef 375, ptr noundef @.str.26, i32 noundef %57)
  %59 = icmp ne i32 %58, 0
  br i1 %59, label %60, label %83

60:                                               ; preds = %52
  %61 = load ptr, ptr %3, align 8, !tbaa !8
  %62 = call ptr @d2i_PKCS7_bio(ptr noundef %61, ptr noundef null)
  store ptr %62, ptr %6, align 8, !tbaa !15
  %63 = call i32 @test_ptr(ptr noundef @.str.11, i32 noundef 376, ptr noundef @.str.27, ptr noundef %62)
  %64 = icmp ne i32 %63, 0
  br i1 %64, label %65, label %83

65:                                               ; preds = %60
  %66 = call i64 @ERR_peek_error()
  %67 = trunc i64 %66 to i32
  %68 = call i32 @test_int_eq(ptr noundef @.str.11, i32 noundef 377, ptr noundef @.str.16, ptr noundef @.str.17, i32 noundef %67, i32 noundef 0)
  %69 = icmp ne i32 %68, 0
  br i1 %69, label %70, label %83

70:                                               ; preds = %65
  %71 = load ptr, ptr %6, align 8, !tbaa !15
  %72 = load ptr, ptr %5, align 8, !tbaa !13
  %73 = call i32 @PKCS7_verify(ptr noundef %71, ptr noundef null, ptr noundef %72, ptr noundef null, ptr noundef null, i32 noundef 0)
  %74 = icmp ne i32 %73, 0
  %75 = zext i1 %74 to i32
  %76 = call i32 @test_true(ptr noundef @.str.11, i32 noundef 378, ptr noundef @.str.28, i32 noundef %75)
  %77 = icmp ne i32 %76, 0
  br i1 %77, label %78, label %83

78:                                               ; preds = %70
  %79 = call i64 @ERR_peek_error()
  %80 = trunc i64 %79 to i32
  %81 = call i32 @test_int_eq(ptr noundef @.str.11, i32 noundef 379, ptr noundef @.str.16, ptr noundef @.str.17, i32 noundef %80, i32 noundef 0)
  %82 = icmp ne i32 %81, 0
  br label %83

83:                                               ; preds = %78, %70, %65, %60, %52, %45, %40, %32, %28, %23, %18, %14
  %84 = phi i1 [ false, %70 ], [ false, %65 ], [ false, %60 ], [ false, %52 ], [ false, %45 ], [ false, %40 ], [ false, %32 ], [ false, %28 ], [ false, %23 ], [ false, %18 ], [ false, %14 ], [ %82, %78 ]
  %85 = zext i1 %84 to i32
  store i32 %85, ptr %1, align 4, !tbaa !4
  br label %86

86:                                               ; preds = %83, %13
  %87 = load ptr, ptr %5, align 8, !tbaa !13
  call void @X509_STORE_free(ptr noundef %87)
  %88 = load ptr, ptr %4, align 8, !tbaa !11
  call void @X509_free(ptr noundef %88)
  %89 = load ptr, ptr %6, align 8, !tbaa !15
  call void @PKCS7_free(ptr noundef %89)
  %90 = load ptr, ptr %2, align 8, !tbaa !8
  %91 = call i32 @BIO_free(ptr noundef %90)
  %92 = load ptr, ptr %3, align 8, !tbaa !8
  %93 = call i32 @BIO_free(ptr noundef %92)
  %94 = load i32, ptr %1, align 4, !tbaa !4
  call void @llvm.lifetime.end.p0(i64 1575, ptr %8) #5
  call void @llvm.lifetime.end.p0(i64 8, ptr %7) #5
  call void @llvm.lifetime.end.p0(i64 8, ptr %6) #5
  call void @llvm.lifetime.end.p0(i64 8, ptr %5) #5
  call void @llvm.lifetime.end.p0(i64 8, ptr %4) #5
  call void @llvm.lifetime.end.p0(i64 8, ptr %3) #5
  call void @llvm.lifetime.end.p0(i64 8, ptr %2) #5
  call void @llvm.lifetime.end.p0(i64 4, ptr %1) #5
  ret i32 %94
}