; Function Attrs: nounwind uwtable
define internal range(i32 0, 2) i32 @pkcs7_inner_content_verify_test() #0 {
  %1 = alloca [1575 x i8], align 16
  call void @llvm.lifetime.start.p0(i64 1575, ptr nonnull %1) #4
  call void @llvm.memcpy.p0.p0.i64(ptr noundef nonnull align 16 dereferenceable(1575) %1, ptr noundef nonnull align 16 dereferenceable(1575) @__const.pkcs7_inner_content_verify_test.sig_der, i64 1575, i1 false)
  %2 = call ptr @BIO_new_mem_buf(ptr noundef nonnull %1, i32 noundef 1575) #4
  %3 = call i32 @test_ptr(ptr noundef nonnull @.str.11, i32 noundef 364, ptr noundef nonnull @.str.22, ptr noundef %2) #4
  %.not = icmp eq i32 %3, 0
  br i1 %.not, label %53, label %4

4:                                                ; preds = %0
  %5 = call ptr @BIO_new_mem_buf(ptr noundef nonnull @smroot_der, i32 noundef 895) #4
  %6 = call i32 @test_ptr(ptr noundef nonnull @.str.11, i32 noundef 367, ptr noundef nonnull @.str.23, ptr noundef %5) #4
  %.not21 = icmp eq i32 %6, 0
  br i1 %.not21, label %53, label %7

7:                                                ; preds = %4
  %8 = call ptr @d2i_X509_bio(ptr noundef %5, ptr noundef null) #4
  %9 = call i32 @test_ptr(ptr noundef nonnull @.str.11, i32 noundef 368, ptr noundef nonnull @.str.15, ptr noundef %8) #4
  %.not22 = icmp eq i32 %9, 0
  br i1 %.not22, label %53, label %10

10:                                               ; preds = %7
  %11 = call i64 @ERR_peek_error() #4
  %12 = trunc i64 %11 to i32
  %13 = call i32 @test_int_eq(ptr noundef nonnull @.str.11, i32 noundef 369, ptr noundef nonnull @.str.16, ptr noundef nonnull @.str.17, i32 noundef %12, i32 noundef 0) #4
  %.not23 = icmp eq i32 %13, 0
  br i1 %.not23, label %53, label %14

14:                                               ; preds = %10
  %15 = call ptr @X509_STORE_new() #4
  %16 = call i32 @test_ptr(ptr noundef nonnull @.str.11, i32 noundef 370, ptr noundef nonnull @.str.18, ptr noundef %15) #4
  %.not24 = icmp eq i32 %16, 0
  br i1 %.not24, label %53, label %17

17:                                               ; preds = %14
  %18 = call i32 @X509_STORE_add_cert(ptr noundef %15, ptr noundef %8) #4
  %19 = icmp ne i32 %18, 0
  %20 = zext i1 %19 to i32
  %21 = call i32 @test_true(ptr noundef nonnull @.str.11, i32 noundef 371, ptr noundef nonnull @.str.19, i32 noundef %20) #4
  %.not25 = icmp eq i32 %21, 0
  br i1 %.not25, label %53, label %22

22:                                               ; preds = %17
  %23 = call ptr @X509_STORE_get0_param(ptr noundef %15) #4
  %24 = call i32 @test_ptr(ptr noundef nonnull @.str.11, i32 noundef 372, ptr noundef nonnull @.str.24, ptr noundef %23) #4
  %.not26 = icmp eq i32 %24, 0
  br i1 %.not26, label %53, label %25

25:                                               ; preds = %22
  %26 = call i32 @X509_VERIFY_PARAM_set_purpose(ptr noundef %23, i32 noundef 10) #4
  %27 = icmp ne i32 %26, 0
  %28 = zext i1 %27 to i32
  %29 = call i32 @test_true(ptr noundef nonnull @.str.11, i32 noundef 374, ptr noundef nonnull @.str.25, i32 noundef %28) #4
  %.not27 = icmp eq i32 %29, 0
  br i1 %.not27, label %53, label %30

30:                                               ; preds = %25
  %31 = call i32 @X509_STORE_set1_param(ptr noundef %15, ptr noundef %23) #4
  %32 = icmp ne i32 %31, 0
  %33 = zext i1 %32 to i32
  %34 = call i32 @test_true(ptr noundef nonnull @.str.11, i32 noundef 375, ptr noundef nonnull @.str.26, i32 noundef %33) #4
  %.not28 = icmp eq i32 %34, 0
  br i1 %.not28, label %53, label %35

35:                                               ; preds = %30
  %36 = call ptr @d2i_PKCS7_bio(ptr noundef %2, ptr noundef null) #4
  %37 = call i32 @test_ptr(ptr noundef nonnull @.str.11, i32 noundef 376, ptr noundef nonnull @.str.27, ptr noundef %36) #4
  %.not29 = icmp eq i32 %37, 0
  br i1 %.not29, label %53, label %38

38:                                               ; preds = %35
  %39 = call i64 @ERR_peek_error() #4
  %40 = trunc i64 %39 to i32
  %41 = call i32 @test_int_eq(ptr noundef nonnull @.str.11, i32 noundef 377, ptr noundef nonnull @.str.16, ptr noundef nonnull @.str.17, i32 noundef %40, i32 noundef 0) #4
  %.not30 = icmp eq i32 %41, 0
  br i1 %.not30, label %53, label %42

42:                                               ; preds = %38
  %43 = call i32 @PKCS7_verify(ptr noundef %36, ptr noundef null, ptr noundef %15, ptr noundef null, ptr noundef null, i32 noundef 0) #4
  %44 = icmp ne i32 %43, 0
  %45 = zext i1 %44 to i32
  %46 = call i32 @test_true(ptr noundef nonnull @.str.11, i32 noundef 378, ptr noundef nonnull @.str.28, i32 noundef %45) #4
  %.not31 = icmp eq i32 %46, 0
  br i1 %.not31, label %53, label %47

47:                                               ; preds = %42
  %48 = call i64 @ERR_peek_error() #4
  %49 = trunc i64 %48 to i32
  %50 = call i32 @test_int_eq(ptr noundef nonnull @.str.11, i32 noundef 379, ptr noundef nonnull @.str.16, ptr noundef nonnull @.str.17, i32 noundef %49, i32 noundef 0) #4
  %51 = icmp ne i32 %50, 0
  %52 = zext i1 %51 to i32
  br label %53

53:                                               ; preds = %4, %7, %10, %14, %17, %22, %25, %30, %35, %38, %42, %47, %0
  %.020 = phi ptr [ null, %0 ], [ %5, %47 ], [ %5, %42 ], [ %5, %38 ], [ %5, %35 ], [ %5, %30 ], [ %5, %25 ], [ %5, %22 ], [ %5, %17 ], [ %5, %14 ], [ %5, %10 ], [ %5, %7 ], [ %5, %4 ]
  %.018 = phi ptr [ null, %0 ], [ %8, %47 ], [ %8, %42 ], [ %8, %38 ], [ %8, %35 ], [ %8, %30 ], [ %8, %25 ], [ %8, %22 ], [ %8, %17 ], [ %8, %14 ], [ %8, %10 ], [ %8, %7 ], [ null, %4 ]
  %.016 = phi ptr [ null, %0 ], [ %15, %47 ], [ %15, %42 ], [ %15, %38 ], [ %15, %35 ], [ %15, %30 ], [ %15, %25 ], [ %15, %22 ], [ %15, %17 ], [ %15, %14 ], [ null, %10 ], [ null, %7 ], [ null, %4 ]
  %.015 = phi ptr [ null, %0 ], [ %36, %47 ], [ %36, %42 ], [ %36, %38 ], [ %36, %35 ], [ null, %30 ], [ null, %25 ], [ null, %22 ], [ null, %17 ], [ null, %14 ], [ null, %10 ], [ null, %7 ], [ null, %4 ]
  %.0 = phi i32 [ 0, %0 ], [ %52, %47 ], [ 0, %42 ], [ 0, %38 ], [ 0, %35 ], [ 0, %30 ], [ 0, %25 ], [ 0, %22 ], [ 0, %17 ], [ 0, %14 ], [ 0, %10 ], [ 0, %7 ], [ 0, %4 ]
  call void @X509_STORE_free(ptr noundef %.016) #4
  call void @X509_free(ptr noundef %.018) #4
  call void @PKCS7_free(ptr noundef %.015) #4
  %54 = call i32 @BIO_free(ptr noundef %.020) #4
  %55 = call i32 @BIO_free(ptr noundef %2) #4
  call void @llvm.lifetime.end.p0(i64 1575, ptr nonnull %1) #4
  ret i32 %.0
}